; Function Attrs: mustprogress uwtable
define void @_ZN6icu_776number4impl15DecimalQuantity10multiplyByERKNS1_6DecNumER10UErrorCode(ptr noundef nonnull align 8 captures(none) dereferenceable(66) %0, ptr noundef nonnull align 8 dereferenceable(92) %1, ptr noundef nonnull align 4 dereferenceable(4) %2) local_unnamed_addr #1 align 2 personality ptr @__gxx_personality_v0 {
  %4 = alloca %"class.icu_77::number::impl::DecNum", align 8
  %5 = getelementptr inbounds nuw i8, ptr %0, i64 16
  %6 = load i32, ptr %5, align 8, !tbaa !28
  %7 = icmp eq i32 %6, 0
  br i1 %7, label %38, label %8

8:                                                ; preds = %3
  call void @llvm.lifetime.start.p0(i64 96, ptr nonnull %4) #26
  call void @_ZN6icu_776number4impl6DecNumC1Ev(ptr noundef nonnull align 8 dereferenceable(92) %4)
  %9 = invoke noundef nonnull align 8 dereferenceable(92) ptr @_ZNK6icu_776number4impl15DecimalQuantity8toDecNumERNS1_6DecNumER10UErrorCode(ptr noundef nonnull align 8 dereferenceable(66) %0, ptr noundef nonnull align 8 dereferenceable(92) %4, ptr noundef nonnull align 4 dereferenceable(4) %2)
          to label %10 unwind label %13

10:                                               ; preds = %8
  %11 = load i32, ptr %2, align 4, !tbaa !13
  %12 = icmp slt i32 %11, 1
  br i1 %12, label %15, label %_ZN6icu_776number4impl15DecimalQuantity11setToDecNumERKNS1_6DecNumER10UErrorCode.exit

13:                                               ; preds = %_ZN6icu_776number4impl15DecimalQuantity12setBcdToZeroEv.exit.i, %23, %15, %8
  %14 = landingpad { ptr, i32 }
          cleanup
  call void @_ZN6icu_776number4impl6DecNumD2Ev(ptr noundef nonnull align 8 dereferenceable(92) %4) #26
  call void @llvm.lifetime.end.p0(i64 96, ptr nonnull %4) #26
  resume { ptr, i32 } %14

15:                                               ; preds = %10
  invoke void @_ZN6icu_776number4impl6DecNum10multiplyByERKS2_R10UErrorCode(ptr noundef nonnull align 8 dereferenceable(92) %4, ptr noundef nonnull align 8 dereferenceable(92) %1, ptr noundef nonnull align 4 dereferenceable(4) %2)
          to label %16 unwind label %13

16:                                               ; preds = %15
  %17 = load i32, ptr %2, align 4, !tbaa !13
  %18 = icmp slt i32 %17, 1
  br i1 %18, label %19, label %_ZN6icu_776number4impl15DecimalQuantity11setToDecNumERKNS1_6DecNumER10UErrorCode.exit

19:                                               ; preds = %16
  %20 = getelementptr inbounds nuw i8, ptr %0, i64 64
  %21 = load i8, ptr %20, align 8, !tbaa !22, !range !24, !noundef !25
  %22 = trunc nuw i8 %21 to i1
  br i1 %22, label %23, label %_ZN6icu_776number4impl15DecimalQuantity12setBcdToZeroEv.exit.i

23:                                               ; preds = %19
  %24 = getelementptr inbounds nuw i8, ptr %0, i64 48
  %25 = load ptr, ptr %24, align 8, !tbaa !26
  invoke void @uprv_free_77(ptr noundef %25)
          to label %.noexc unwind label %13

.noexc:                                           ; preds = %23
  store i8 0, ptr %20, align 8, !tbaa !22
  br label %_ZN6icu_776number4impl15DecimalQuantity12setBcdToZeroEv.exit.i

_ZN6icu_776number4impl15DecimalQuantity12setBcdToZeroEv.exit.i: ; preds = %.noexc, %19
  %26 = getelementptr inbounds nuw i8, ptr %0, i64 48
  store i64 0, ptr %26, align 8, !tbaa !26
  %27 = getelementptr inbounds nuw i8, ptr %0, i64 12
  %28 = getelementptr inbounds nuw i8, ptr %0, i64 24
  store double 0.000000e+00, ptr %28, align 8, !tbaa !30
  %29 = getelementptr inbounds nuw i8, ptr %0, i64 32
  store i32 0, ptr %29, align 8, !tbaa !31
  %30 = getelementptr inbounds nuw i8, ptr %0, i64 44
  store i32 0, ptr %30, align 4, !tbaa !32
  call void @llvm.memset.p0.i64(ptr noundef nonnull align 4 dereferenceable(10) %27, i8 0, i64 10, i1 false)
  invoke void @_ZN6icu_776number4impl15DecimalQuantity12_setToDecNumERKNS1_6DecNumER10UErrorCode(ptr noundef nonnull align 8 dereferenceable(66) %0, ptr noundef nonnull align 8 dereferenceable(92) %4, ptr noundef nonnull readonly align 4 dereferenceable(4) %2)
          to label %_ZN6icu_776number4impl15DecimalQuantity11setToDecNumERKNS1_6DecNumER10UErrorCode.exit unwind label %13

_ZN6icu_776number4impl15DecimalQuantity11setToDecNumERKNS1_6DecNumER10UErrorCode.exit: ; preds = %_ZN6icu_776number4impl15DecimalQuantity12setBcdToZeroEv.exit.i, %16, %10
  %31 = getelementptr inbounds nuw i8, ptr %4, i64 12
  %32 = load i8, ptr %31, align 4, !tbaa !46
  %.not.i.i.i = icmp eq i8 %32, 0
  br i1 %.not.i.i.i, label %_ZN6icu_776number4impl6DecNumD2Ev.exit, label %33

33:                                               ; preds = %_ZN6icu_776number4impl15DecimalQuantity11setToDecNumERKNS1_6DecNumER10UErrorCode.exit
  %34 = load ptr, ptr %4, align 8, !tbaa !49
  invoke void @uprv_free_77(ptr noundef %34)
          to label %_ZN6icu_776number4impl6DecNumD2Ev.exit unwind label %35

35:                                               ; preds = %33
  %36 = landingpad { ptr, i32 }
          catch ptr null
  %37 = extractvalue { ptr, i32 } %36, 0
  call void @__clang_call_terminate(ptr %37) #28
  unreachable

_ZN6icu_776number4impl6DecNumD2Ev.exit:           ; preds = %_ZN6icu_776number4impl15DecimalQuantity11setToDecNumERKNS1_6DecNumER10UErrorCode.exit, %33
  call void @llvm.lifetime.end.p0(i64 96, ptr nonnull %4) #26
  br label %38

38:                                               ; preds = %3, %_ZN6icu_776number4impl6DecNumD2Ev.exit
  ret void
}